; Function Attrs: mustprogress uwtable
define dso_local void @_ZN5ImGui8TreePushEPKv(ptr noundef %0) local_unnamed_addr #5 {
  %2 = load ptr, ptr @GImGui, align 8, !tbaa !4
  %3 = getelementptr inbounds nuw i8, ptr %2, i64 4928
  %4 = load ptr, ptr %3, align 8, !tbaa !9
  %5 = getelementptr inbounds nuw i8, ptr %4, i64 204
  store i8 1, ptr %5, align 4, !tbaa !130
  tail call void @_ZN5ImGui6IndentEf(float noundef 0.000000e+00)
  %6 = getelementptr inbounds nuw i8, ptr %4, i64 416
  %7 = load i32, ptr %6, align 8, !tbaa !548
  %8 = add nsw i32 %7, 1
  store i32 %8, ptr %6, align 8, !tbaa !548
  tail call void @_ZN5ImGui6PushIDEPKv(ptr noundef %0)
  ret void
}